target datalayout = "e-m:e-p270:32:32-p271:32:32-p272:64:64-i64:64-i128:128-f80:128-n8:16:32:64-S128"
target triple = "x86_64-pc-linux-gnu"

%struct.stbir__contributors = type { i32, i32 }
%struct.__loadu_ps = type { <4 x float> }
%struct.__storeu_ps = type { <4 x float> }

; Function Attrs: alwaysinline nounwind uwtable
define internal void @_mm_storeu_ps(ptr noundef %0, <4 x float> noundef %1) #13 {
  %3 = alloca ptr, align 8
  %4 = alloca <4 x float>, align 16
  store ptr %0, ptr %3, align 8
  store <4 x float> %1, ptr %4, align 16
  %5 = load <4 x float>, ptr %4, align 16
  %6 = load ptr, ptr %3, align 8
  %7 = getelementptr inbounds nuw %struct.__storeu_ps, ptr %6, i32 0, i32 0
  store <4 x float> %5, ptr %7, align 1
  ret void
}

; Function Attrs: alwaysinline nounwind uwtable
define internal <4 x float> @_mm_add_ps(<4 x float> noundef %0, <4 x float> noundef %1) #13 {
  %3 = alloca <4 x float>, align 16
  %4 = alloca <4 x float>, align 16
  store <4 x float> %0, ptr %3, align 16
  store <4 x float> %1, ptr %4, align 16
  %5 = load <4 x float>, ptr %3, align 16
  %6 = load <4 x float>, ptr %4, align 16
  %7 = fadd <4 x float> %5, %6
  ret <4 x float> %7
}

; Function Attrs: alwaysinline nounwind uwtable
define internal <4 x float> @_mm_mul_ps(<4 x float> noundef %0, <4 x float> noundef %1) #13 {
  %3 = alloca <4 x float>, align 16
  %4 = alloca <4 x float>, align 16
  store <4 x float> %0, ptr %3, align 16
  store <4 x float> %1, ptr %4, align 16
  %5 = load <4 x float>, ptr %3, align 16
  %6 = load <4 x float>, ptr %4, align 16
  %7 = fmul <4 x float> %5, %6
  ret <4 x float> %7
}

; Function Attrs: alwaysinline nounwind uwtable
define internal <4 x float> @_mm_castsi128_ps(<2 x i64> noundef %0) #13 {
  %2 = alloca <2 x i64>, align 16
  store <2 x i64> %0, ptr %2, align 16
  %3 = load <2 x i64>, ptr %2, align 16
  %4 = bitcast <2 x i64> %3 to <4 x float>
  ret <4 x float> %4
}

; Function Attrs: alwaysinline nounwind uwtable
define internal <2 x i64> @_mm_castps_si128(<4 x float> noundef %0) #13 {
  %2 = alloca <4 x float>, align 16
  store <4 x float> %0, ptr %2, align 16
  %3 = load <4 x float>, ptr %2, align 16
  %4 = bitcast <4 x float> %3 to <2 x i64>
  ret <2 x i64> %4
}

; Function Attrs: alwaysinline nounwind uwtable
define internal <4 x float> @_mm_loadu_ps(ptr noundef %0) #13 {
  %2 = alloca ptr, align 8
  store ptr %0, ptr %2, align 8
  %3 = load ptr, ptr %2, align 8
  %4 = getelementptr inbounds nuw %struct.__loadu_ps, ptr %3, i32 0, i32 0
  %5 = load <4 x float>, ptr %4, align 1
  ret <4 x float> %5
}

; Function Attrs: nounwind uwtable
define internal void @stbir__horizontal_gather_4_channels_with_11_coeffs(ptr noundef %0, i32 noundef %1, ptr noundef %2, ptr noundef %3, ptr noundef %4, i32 noundef %5) #12 {
  %7 = alloca ptr, align 8
  %8 = alloca i32, align 4
  %9 = alloca ptr, align 8
  %10 = alloca ptr, align 8
  %11 = alloca ptr, align 8
  %12 = alloca i32, align 4
  %13 = alloca ptr, align 8
  %14 = alloca ptr, align 8
  %15 = alloca ptr, align 8
  %16 = alloca ptr, align 8
  %17 = alloca <4 x float>, align 16
  %18 = alloca <4 x float>, align 16
  %19 = alloca <4 x float>, align 16
  %20 = alloca <4 x float>, align 16
  store ptr %0, ptr %7, align 8
  store i32 %1, ptr %8, align 4
  store ptr %2, ptr %9, align 8
  store ptr %3, ptr %10, align 8
  store ptr %4, ptr %11, align 8
  store i32 %5, ptr %12, align 4
  call void @llvm.lifetime.start.p0(i64 8, ptr %13) #19
  %21 = load ptr, ptr %7, align 8
  %22 = load i32, ptr %8, align 4
  %23 = mul i32 %22, 4
  %24 = zext i32 %23 to i64
  %25 = getelementptr inbounds nuw float, ptr %21, i64 %24
  store ptr %25, ptr %13, align 8
  call void @llvm.lifetime.start.p0(i64 8, ptr %14) #19
  %26 = load ptr, ptr %7, align 8
  store ptr %26, ptr %14, align 8
  br label %27

27:                                               ; preds = %203, %6
  call void @llvm.lifetime.start.p0(i64 8, ptr %15) #19
  %28 = load ptr, ptr %9, align 8
  %29 = load ptr, ptr %10, align 8
  %30 = getelementptr inbounds nuw %struct.stbir__contributors, ptr %29, i32 0, i32 0
  %31 = load i32, ptr %30, align 4
  %32 = mul nsw i32 %31, 4
  %33 = sext i32 %32 to i64
  %34 = getelementptr inbounds float, ptr %28, i64 %33
  store ptr %34, ptr %15, align 8
  call void @llvm.lifetime.start.p0(i64 8, ptr %16) #19
  %35 = load ptr, ptr %11, align 8
  store ptr %35, ptr %16, align 8
  call void @llvm.lifetime.start.p0(i64 16, ptr %17) #19
  call void @llvm.lifetime.start.p0(i64 16, ptr %18) #19
  call void @llvm.lifetime.start.p0(i64 16, ptr %19) #19
  call void @llvm.lifetime.start.p0(i64 16, ptr %20) #19
  %36 = load ptr, ptr %15, align 8
  call void asm sideeffect "", "r,~{dirflag},~{fpsr},~{flags}"(ptr %36) #19, !srcloc !622
  %37 = load ptr, ptr %16, align 8
  %38 = call <4 x float> @_mm_loadu_ps(ptr noundef %37)
  store <4 x float> %38, ptr %20, align 16
  %39 = load <4 x float>, ptr %20, align 16
  %40 = call <2 x i64> @_mm_castps_si128(<4 x float> noundef %39)
  %41 = bitcast <2 x i64> %40 to <4 x i32>
  %42 = shufflevector <4 x i32> %41, <4 x i32> poison, <4 x i32> zeroinitializer
  %43 = bitcast <4 x i32> %42 to <2 x i64>
  %44 = call <4 x float> @_mm_castsi128_ps(<2 x i64> noundef %43)
  store <4 x float> %44, ptr %19, align 16
  %45 = load <4 x float>, ptr %19, align 16
  %46 = load ptr, ptr %15, align 8
  %47 = call <4 x float> @_mm_loadu_ps(ptr noundef %46)
  %48 = call <4 x float> @_mm_mul_ps(<4 x float> noundef %45, <4 x float> noundef %47)
  store <4 x float> %48, ptr %17, align 16
  %49 = load <4 x float>, ptr %20, align 16
  %50 = call <2 x i64> @_mm_castps_si128(<4 x float> noundef %49)
  %51 = bitcast <2 x i64> %50 to <4 x i32>
  %52 = shufflevector <4 x i32> %51, <4 x i32> poison, <4 x i32> <i32 1, i32 1, i32 1, i32 1>
  %53 = bitcast <4 x i32> %52 to <2 x i64>
  %54 = call <4 x float> @_mm_castsi128_ps(<2 x i64> noundef %53)
  store <4 x float> %54, ptr %19, align 16
  %55 = load <4 x float>, ptr %19, align 16
  %56 = load ptr, ptr %15, align 8
  %57 = getelementptr inbounds float, ptr %56, i64 4
  %58 = call <4 x float> @_mm_loadu_ps(ptr noundef %57)
  %59 = call <4 x float> @_mm_mul_ps(<4 x float> noundef %55, <4 x float> noundef %58)
  store <4 x float> %59, ptr %18, align 16
  %60 = load <4 x float>, ptr %20, align 16
  %61 = call <2 x i64> @_mm_castps_si128(<4 x float> noundef %60)
  %62 = bitcast <2 x i64> %61 to <4 x i32>
  %63 = shufflevector <4 x i32> %62, <4 x i32> poison, <4 x i32> <i32 2, i32 2, i32 2, i32 2>
  %64 = bitcast <4 x i32> %63 to <2 x i64>
  %65 = call <4 x float> @_mm_castsi128_ps(<2 x i64> noundef %64)
  store <4 x float> %65, ptr %19, align 16
  %66 = load <4 x float>, ptr %17, align 16
  %67 = load <4 x float>, ptr %19, align 16
  %68 = load ptr, ptr %15, align 8
  %69 = getelementptr inbounds float, ptr %68, i64 8
  %70 = call <4 x float> @_mm_loadu_ps(ptr noundef %69)
  %71 = call <4 x float> @_mm_mul_ps(<4 x float> noundef %67, <4 x float> noundef %70)
  %72 = call <4 x float> @_mm_add_ps(<4 x float> noundef %66, <4 x float> noundef %71)
  store <4 x float> %72, ptr %17, align 16
  %73 = load <4 x float>, ptr %20, align 16
  %74 = call <2 x i64> @_mm_castps_si128(<4 x float> noundef %73)
  %75 = bitcast <2 x i64> %74 to <4 x i32>
  %76 = shufflevector <4 x i32> %75, <4 x i32> poison, <4 x i32> <i32 3, i32 3, i32 3, i32 3>
  %77 = bitcast <4 x i32> %76 to <2 x i64>
  %78 = call <4 x float> @_mm_castsi128_ps(<2 x i64> noundef %77)
  store <4 x float> %78, ptr %19, align 16
  %79 = load <4 x float>, ptr %18, align 16
  %80 = load <4 x float>, ptr %19, align 16
  %81 = load ptr, ptr %15, align 8
  %82 = getelementptr inbounds float, ptr %81, i64 12
  %83 = call <4 x float> @_mm_loadu_ps(ptr noundef %82)
  %84 = call <4 x float> @_mm_mul_ps(<4 x float> noundef %80, <4 x float> noundef %83)
  %85 = call <4 x float> @_mm_add_ps(<4 x float> noundef %79, <4 x float> noundef %84)
  store <4 x float> %85, ptr %18, align 16
  %86 = load ptr, ptr %15, align 8
  call void asm sideeffect "", "r,~{dirflag},~{fpsr},~{flags}"(ptr %86) #19, !srcloc !623
  %87 = load ptr, ptr %16, align 8
  %88 = getelementptr inbounds float, ptr %87, i64 4
  %89 = call <4 x float> @_mm_loadu_ps(ptr noundef %88)
  store <4 x float> %89, ptr %20, align 16
  %90 = load <4 x float>, ptr %20, align 16
  %91 = call <2 x i64> @_mm_castps_si128(<4 x float> noundef %90)
  %92 = bitcast <2 x i64> %91 to <4 x i32>
  %93 = shufflevector <4 x i32> %92, <4 x i32> poison, <4 x i32> zeroinitializer
  %94 = bitcast <4 x i32> %93 to <2 x i64>
  %95 = call <4 x float> @_mm_castsi128_ps(<2 x i64> noundef %94)
  store <4 x float> %95, ptr %19, align 16
  %96 = load <4 x float>, ptr %17, align 16
  %97 = load <4 x float>, ptr %19, align 16
  %98 = load ptr, ptr %15, align 8
  %99 = getelementptr inbounds float, ptr %98, i64 16
  %100 = call <4 x float> @_mm_loadu_ps(ptr noundef %99)
  %101 = call <4 x float> @_mm_mul_ps(<4 x float> noundef %97, <4 x float> noundef %100)
  %102 = call <4 x float> @_mm_add_ps(<4 x float> noundef %96, <4 x float> noundef %101)
  store <4 x float> %102, ptr %17, align 16
  %103 = load <4 x float>, ptr %20, align 16
  %104 = call <2 x i64> @_mm_castps_si128(<4 x float> noundef %103)
  %105 = bitcast <2 x i64> %104 to <4 x i32>
  %106 = shufflevector <4 x i32> %105, <4 x i32> poison, <4 x i32> <i32 1, i32 1, i32 1, i32 1>
  %107 = bitcast <4 x i32> %106 to <2 x i64>
  %108 = call <4 x float> @_mm_castsi128_ps(<2 x i64> noundef %107)
  store <4 x float> %108, ptr %19, align 16
  %109 = load <4 x float>, ptr %18, align 16
  %110 = load <4 x float>, ptr %19, align 16
  %111 = load ptr, ptr %15, align 8
  %112 = getelementptr inbounds float, ptr %111, i64 16
  %113 = getelementptr inbounds float, ptr %112, i64 4
  %114 = call <4 x float> @_mm_loadu_ps(ptr noundef %113)
  %115 = call <4 x float> @_mm_mul_ps(<4 x float> noundef %110, <4 x float> noundef %114)
  %116 = call <4 x float> @_mm_add_ps(<4 x float> noundef %109, <4 x float> noundef %115)
  store <4 x float> %116, ptr %18, align 16
  %117 = load <4 x float>, ptr %20, align 16
  %118 = call <2 x i64> @_mm_castps_si128(<4 x float> noundef %117)
  %119 = bitcast <2 x i64> %118 to <4 x i32>
  %120 = shufflevector <4 x i32> %119, <4 x i32> poison, <4 x i32> <i32 2, i32 2, i32 2, i32 2>
  %121 = bitcast <4 x i32> %120 to <2 x i64>
  %122 = call <4 x float> @_mm_castsi128_ps(<2 x i64> noundef %121)
  store <4 x float> %122, ptr %19, align 16
  %123 = load <4 x float>, ptr %17, align 16
  %124 = load <4 x float>, ptr %19, align 16
  %125 = load ptr, ptr %15, align 8
  %126 = getelementptr inbounds float, ptr %125, i64 16
  %127 = getelementptr inbounds float, ptr %126, i64 8
  %128 = call <4 x float> @_mm_loadu_ps(ptr noundef %127)
  %129 = call <4 x float> @_mm_mul_ps(<4 x float> noundef %124, <4 x float> noundef %128)
  %130 = call <4 x float> @_mm_add_ps(<4 x float> noundef %123, <4 x float> noundef %129)
  store <4 x float> %130, ptr %17, align 16
  %131 = load <4 x float>, ptr %20, align 16
  %132 = call <2 x i64> @_mm_castps_si128(<4 x float> noundef %131)
  %133 = bitcast <2 x i64> %132 to <4 x i32>
  %134 = shufflevector <4 x i32> %133, <4 x i32> poison, <4 x i32> <i32 3, i32 3, i32 3, i32 3>
  %135 = bitcast <4 x i32> %134 to <2 x i64>
  %136 = call <4 x float> @_mm_castsi128_ps(<2 x i64> noundef %135)
  store <4 x float> %136, ptr %19, align 16
  %137 = load <4 x float>, ptr %18, align 16
  %138 = load <4 x float>, ptr %19, align 16
  %139 = load ptr, ptr %15, align 8
  %140 = getelementptr inbounds float, ptr %139, i64 16
  %141 = getelementptr inbounds float, ptr %140, i64 12
  %142 = call <4 x float> @_mm_loadu_ps(ptr noundef %141)
  %143 = call <4 x float> @_mm_mul_ps(<4 x float> noundef %138, <4 x float> noundef %142)
  %144 = call <4 x float> @_mm_add_ps(<4 x float> noundef %137, <4 x float> noundef %143)
  store <4 x float> %144, ptr %18, align 16
  %145 = load ptr, ptr %15, align 8
  call void asm sideeffect "", "r,~{dirflag},~{fpsr},~{flags}"(ptr %145) #19, !srcloc !624
  %146 = load ptr, ptr %16, align 8
  %147 = getelementptr inbounds float, ptr %146, i64 8
  %148 = call <4 x float> @_mm_loadu_ps(ptr noundef %147)
  store <4 x float> %148, ptr %20, align 16
  %149 = load <4 x float>, ptr %20, align 16
  %150 = call <2 x i64> @_mm_castps_si128(<4 x float> noundef %149)
  %151 = bitcast <2 x i64> %150 to <4 x i32>
  %152 = shufflevector <4 x i32> %151, <4 x i32> poison, <4 x i32> zeroinitializer
  %153 = bitcast <4 x i32> %152 to <2 x i64>
  %154 = call <4 x float> @_mm_castsi128_ps(<2 x i64> noundef %153)
  store <4 x float> %154, ptr %19, align 16
  %155 = load <4 x float>, ptr %17, align 16
  %156 = load <4 x float>, ptr %19, align 16
  %157 = load ptr, ptr %15, align 8
  %158 = getelementptr inbounds float, ptr %157, i64 32
  %159 = call <4 x float> @_mm_loadu_ps(ptr noundef %158)
  %160 = call <4 x float> @_mm_mul_ps(<4 x float> noundef %156, <4 x float> noundef %159)
  %161 = call <4 x float> @_mm_add_ps(<4 x float> noundef %155, <4 x float> noundef %160)
  store <4 x float> %161, ptr %17, align 16
  %162 = load <4 x float>, ptr %20, align 16
  %163 = call <2 x i64> @_mm_castps_si128(<4 x float> noundef %162)
  %164 = bitcast <2 x i64> %163 to <4 x i32>
  %165 = shufflevector <4 x i32> %164, <4 x i32> poison, <4 x i32> <i32 1, i32 1, i32 1, i32 1>
  %166 = bitcast <4 x i32> %165 to <2 x i64>
  %167 = call <4 x float> @_mm_castsi128_ps(<2 x i64> noundef %166)
  store <4 x float> %167, ptr %19, align 16
  %168 = load <4 x float>, ptr %18, align 16
  %169 = load <4 x float>, ptr %19, align 16
  %170 = load ptr, ptr %15, align 8
  %171 = getelementptr inbounds float, ptr %170, i64 32
  %172 = getelementptr inbounds float, ptr %171, i64 4
  %173 = call <4 x float> @_mm_loadu_ps(ptr noundef %172)
  %174 = call <4 x float> @_mm_mul_ps(<4 x float> noundef %169, <4 x float> noundef %173)
  %175 = call <4 x float> @_mm_add_ps(<4 x float> noundef %168, <4 x float> noundef %174)
  store <4 x float> %175, ptr %18, align 16
  %176 = load <4 x float>, ptr %20, align 16
  %177 = call <2 x i64> @_mm_castps_si128(<4 x float> noundef %176)
  %178 = bitcast <2 x i64> %177 to <4 x i32>
  %179 = shufflevector <4 x i32> %178, <4 x i32> poison, <4 x i32> <i32 2, i32 2, i32 2, i32 2>
  %180 = bitcast <4 x i32> %179 to <2 x i64>
  %181 = call <4 x float> @_mm_castsi128_ps(<2 x i64> noundef %180)
  store <4 x float> %181, ptr %19, align 16
  %182 = load <4 x float>, ptr %17, align 16
  %183 = load <4 x float>, ptr %19, align 16
  %184 = load ptr, ptr %15, align 8
  %185 = getelementptr inbounds float, ptr %184, i64 32
  %186 = getelementptr inbounds float, ptr %185, i64 8
  %187 = call <4 x float> @_mm_loadu_ps(ptr noundef %186)
  %188 = call <4 x float> @_mm_mul_ps(<4 x float> noundef %183, <4 x float> noundef %187)
  %189 = call <4 x float> @_mm_add_ps(<4 x float> noundef %182, <4 x float> noundef %188)
  store <4 x float> %189, ptr %17, align 16
  %190 = load <4 x float>, ptr %17, align 16
  %191 = load <4 x float>, ptr %18, align 16
  %192 = call <4 x float> @_mm_add_ps(<4 x float> noundef %190, <4 x float> noundef %191)
  store <4 x float> %192, ptr %17, align 16
  %193 = load ptr, ptr %14, align 8
  %194 = load <4 x float>, ptr %17, align 16
  call void @_mm_storeu_ps(ptr noundef %193, <4 x float> noundef %194)
  %195 = load i32, ptr %12, align 4
  %196 = load ptr, ptr %11, align 8
  %197 = sext i32 %195 to i64
  %198 = getelementptr inbounds float, ptr %196, i64 %197
  store ptr %198, ptr %11, align 8
  %199 = load ptr, ptr %10, align 8
  %200 = getelementptr inbounds nuw %struct.stbir__contributors, ptr %199, i32 1
  store ptr %200, ptr %10, align 8
  %201 = load ptr, ptr %14, align 8
  %202 = getelementptr inbounds float, ptr %201, i64 4
  store ptr %202, ptr %14, align 8
  call void @llvm.lifetime.end.p0(i64 16, ptr %20) #19
  call void @llvm.lifetime.end.p0(i64 16, ptr %19) #19
  call void @llvm.lifetime.end.p0(i64 16, ptr %18) #19
  call void @llvm.lifetime.end.p0(i64 16, ptr %17) #19
  call void @llvm.lifetime.end.p0(i64 8, ptr %16) #19
  call void @llvm.lifetime.end.p0(i64 8, ptr %15) #19
  br label %203

203:                                              ; preds = %27
  %204 = load ptr, ptr %14, align 8
  %205 = load ptr, ptr %13, align 8
  %206 = icmp ult ptr %204, %205
  br i1 %206, label %27, label %207, !llvm.loop !625

207:                                              ; preds = %203
  call void @llvm.lifetime.end.p0(i64 8, ptr %14) #19
  call void @llvm.lifetime.end.p0(i64 8, ptr %13) #19
  ret void
}